; Function Attrs: mustprogress nounwind uwtable
define internal void @"_ZNSt13__future_base11_Task_stateIZ4mainE3$_2SaIiEFvvEED0Ev"(ptr noundef nonnull align 8 dereferenceable(48) %this) unnamed_addr #4 align 2 personality ptr @__gxx_personality_v0 {
entry:
  store ptr getelementptr inbounds ({ [9 x ptr] }, ptr @_ZTVNSt13__future_base16_Task_state_baseIFvvEEE, i64 0, i32 0, i64 2), ptr %this, align 8
  %_M_result.i.i = getelementptr inbounds i8, ptr %this, i64 32
  %0 = load ptr, ptr %_M_result.i.i, align 8
  %cmp.not.i.i.i = icmp eq ptr %0, null
  br i1 %cmp.not.i.i.i, label %_ZNSt10unique_ptrINSt13__future_base7_ResultIvEENS0_12_Result_base8_DeleterEED2Ev.exit.i.i, label %if.then.i.i.i

if.then.i.i.i:                                    ; preds = %entry
  %vtable.i.i.i.i = load ptr, ptr %0, align 8
  %1 = load ptr, ptr %vtable.i.i.i.i, align 8
  invoke void %1(ptr noundef nonnull align 8 dereferenceable(16) %0)
          to label %_ZNSt10unique_ptrINSt13__future_base7_ResultIvEENS0_12_Result_base8_DeleterEED2Ev.exit.i.i unwind label %terminate.lpad.i.i.i

terminate.lpad.i.i.i:                             ; preds = %if.then.i.i.i
  %2 = landingpad { ptr, i32 }
          catch ptr null
  %3 = extractvalue { ptr, i32 } %2, 0
  tail call void @__clang_call_terminate(ptr %3) #35
  unreachable

_ZNSt10unique_ptrINSt13__future_base7_ResultIvEENS0_12_Result_base8_DeleterEED2Ev.exit.i.i: ; preds = %if.then.i.i.i, %entry
  store ptr null, ptr %_M_result.i.i, align 8
  store ptr getelementptr inbounds ({ [6 x ptr] }, ptr @_ZTVNSt13__future_base13_State_baseV2E, i64 0, i32 0, i64 2), ptr %this, align 8
  %_M_result.i.i.i = getelementptr inbounds i8, ptr %this, i64 8
  %4 = load ptr, ptr %_M_result.i.i.i, align 8
  %cmp.not.i.i.i.i = icmp eq ptr %4, null
  br i1 %cmp.not.i.i.i.i, label %"_ZNSt13__future_base11_Task_stateIZ4mainE3$_2SaIiEFvvEED2Ev.exit", label %if.then.i.i.i.i

if.then.i.i.i.i:                                  ; preds = %_ZNSt10unique_ptrINSt13__future_base7_ResultIvEENS0_12_Result_base8_DeleterEED2Ev.exit.i.i
  %vtable.i.i.i.i.i = load ptr, ptr %4, align 8
  %5 = load ptr, ptr %vtable.i.i.i.i.i, align 8
  invoke void %5(ptr noundef nonnull align 8 dereferenceable(16) %4)
          to label %"_ZNSt13__future_base11_Task_stateIZ4mainE3$_2SaIiEFvvEED2Ev.exit" unwind label %terminate.lpad.i.i.i.i

terminate.lpad.i.i.i.i:                           ; preds = %if.then.i.i.i.i
  %6 = landingpad { ptr, i32 }
          catch ptr null
  %7 = extractvalue { ptr, i32 } %6, 0
  tail call void @__clang_call_terminate(ptr %7) #35
  unreachable

"_ZNSt13__future_base11_Task_stateIZ4mainE3$_2SaIiEFvvEED2Ev.exit": ; preds = %_ZNSt10unique_ptrINSt13__future_base7_ResultIvEENS0_12_Result_base8_DeleterEED2Ev.exit.i.i, %if.then.i.i.i.i
  tail call void @_ZdlPv(ptr noundef nonnull %this) #34
  ret void
}